target datalayout = "e-m:e-p270:32:32-p271:32:32-p272:64:64-i64:64-i128:128-f80:128-n8:16:32:64-S128"
target triple = "x86_64-pc-linux-gnu"

; Function Attrs: nounwind uwtable
define i32 @avcodec_default_execute(ptr noundef %0, ptr noundef %1, ptr noundef %2, ptr noundef %3, i32 noundef %4, i32 noundef %5) #0 {
  %7 = alloca ptr, align 8
  %8 = alloca ptr, align 8
  %9 = alloca ptr, align 8
  %10 = alloca ptr, align 8
  %11 = alloca i32, align 4
  %12 = alloca i32, align 4
  %13 = alloca i64, align 8
  %14 = alloca i64, align 8
  %15 = alloca i32, align 4
  store ptr %0, ptr %7, align 8, !tbaa !4
  store ptr %1, ptr %8, align 8, !tbaa !9
  store ptr %2, ptr %9, align 8, !tbaa !9
  store ptr %3, ptr %10, align 8, !tbaa !10
  store i32 %4, ptr %11, align 4, !tbaa !12
  store i32 %5, ptr %12, align 4, !tbaa !12
  call void @llvm.lifetime.start.p0(i64 8, ptr %13) #13
  store i64 0, ptr %13, align 8, !tbaa !14
  br label %16

16:                                               ; preds = %47, %6
  %17 = load i64, ptr %13, align 8, !tbaa !14
  %18 = load i32, ptr %11, align 4, !tbaa !12
  %19 = sext i32 %18 to i64
  %20 = icmp ult i64 %17, %19
  br i1 %20, label %21, label %50

21:                                               ; preds = %16
  call void @llvm.lifetime.start.p0(i64 8, ptr %14) #13
  %22 = load i64, ptr %13, align 8, !tbaa !14
  %23 = load i32, ptr %12, align 4, !tbaa !12
  %24 = sext i32 %23 to i64
  %25 = mul i64 %22, %24
  store i64 %25, ptr %14, align 8, !tbaa !14
  call void @llvm.lifetime.start.p0(i64 4, ptr %15) #13
  %26 = load ptr, ptr %8, align 8, !tbaa !9
  %27 = load ptr, ptr %7, align 8, !tbaa !4
  %28 = load i64, ptr %14, align 8, !tbaa !14
  %29 = icmp ne i64 %28, 0
  br i1 %29, label %30, label %34

30:                                               ; preds = %21
  %31 = load ptr, ptr %9, align 8, !tbaa !9
  %32 = load i64, ptr %14, align 8, !tbaa !14
  %33 = getelementptr inbounds nuw i8, ptr %31, i64 %32
  br label %36

34:                                               ; preds = %21
  %35 = load ptr, ptr %9, align 8, !tbaa !9
  br label %36

36:                                               ; preds = %34, %30
  %37 = phi ptr [ %33, %30 ], [ %35, %34 ]
  %38 = call i32 %26(ptr noundef %27, ptr noundef %37)
  store i32 %38, ptr %15, align 4, !tbaa !12
  %39 = load ptr, ptr %10, align 8, !tbaa !10
  %40 = icmp ne ptr %39, null
  br i1 %40, label %41, label %46

41:                                               ; preds = %36
  %42 = load i32, ptr %15, align 4, !tbaa !12
  %43 = load ptr, ptr %10, align 8, !tbaa !10
  %44 = load i64, ptr %13, align 8, !tbaa !14
  %45 = getelementptr inbounds nuw i32, ptr %43, i64 %44
  store i32 %42, ptr %45, align 4, !tbaa !12
  br label %46

46:                                               ; preds = %41, %36
  call void @llvm.lifetime.end.p0(i64 4, ptr %15) #13
  call void @llvm.lifetime.end.p0(i64 8, ptr %14) #13
  br label %47

47:                                               ; preds = %46
  %48 = load i64, ptr %13, align 8, !tbaa !14
  %49 = add i64 %48, 1
  store i64 %49, ptr %13, align 8, !tbaa !14
  br label %16, !llvm.loop !16

50:                                               ; preds = %16
  br label %51

51:                                               ; preds = %50
  br label %52

52:                                               ; preds = %51
  br label %53

53:                                               ; preds = %52
  call void @llvm.lifetime.end.p0(i64 8, ptr %13) #13
  ret i32 0
}