; Function Attrs: nounwind uwtable
define noundef i32 @avcodec_default_execute(ptr noundef %0, ptr noundef readonly captures(none) %1, ptr noundef %2, ptr noundef writeonly captures(address_is_null) %3, i32 noundef %4, i32 noundef %5) local_unnamed_addr #0 {
  %7 = sext i32 %4 to i64
  %.not16 = icmp eq i32 %4, 0
  br i1 %.not16, label %._crit_edge, label %.lr.ph

.lr.ph:                                           ; preds = %6
  %8 = sext i32 %5 to i64
  %.not = icmp eq ptr %3, null
  br i1 %.not, label %.lr.ph.split.us, label %.lr.ph.split

.lr.ph.split.us:                                  ; preds = %.lr.ph, %.lr.ph.split.us
  %.015.us = phi i64 [ %12, %.lr.ph.split.us ], [ 0, %.lr.ph ]
  %9 = mul i64 %.015.us, %8
  %10 = getelementptr inbounds nuw i8, ptr %2, i64 %9
  %11 = tail call i32 %1(ptr noundef %0, ptr noundef %10) #12
  %12 = add nuw i64 %.015.us, 1
  %exitcond18.not = icmp eq i64 %12, %7
  br i1 %exitcond18.not, label %._crit_edge, label %.lr.ph.split.us, !llvm.loop !4

.lr.ph.split:                                     ; preds = %.lr.ph, %.lr.ph.split
  %.015 = phi i64 [ %17, %.lr.ph.split ], [ 0, %.lr.ph ]
  %13 = mul i64 %.015, %8
  %14 = getelementptr inbounds nuw i8, ptr %2, i64 %13
  %15 = tail call i32 %1(ptr noundef %0, ptr noundef %14) #12
  %16 = getelementptr inbounds nuw i32, ptr %3, i64 %.015
  store i32 %15, ptr %16, align 4, !tbaa !6
  %17 = add nuw i64 %.015, 1
  %exitcond.not = icmp eq i64 %17, %7
  br i1 %exitcond.not, label %._crit_edge, label %.lr.ph.split, !llvm.loop !4

._crit_edge:                                      ; preds = %.lr.ph.split, %.lr.ph.split.us, %6
  ret i32 0
}